; Function Attrs: mustprogress null_pointer_is_valid sspstrong uwtable
define void @_ZN23LBMLBTRUTransportDialog35actionSourceSMFramesBytes_triggeredEb(ptr noundef readonly align 8 captures(none) dereferenceable_or_null(112) %0, i1 noundef zeroext %1) local_unnamed_addr #0 align 2 {
  %3 = getelementptr inbounds nuw i8, ptr %0, i64 40
  %4 = load ptr, ptr %3, align 8
  %5 = getelementptr inbounds nuw i8, ptr %4, i64 392
  %6 = load ptr, ptr %5, align 8
  %7 = xor i1 %1, true
  tail call void @_ZN9QTreeView15setColumnHiddenEib(ptr noundef align 8 dereferenceable_or_null(40) %6, i32 noundef 19, i1 noundef zeroext %7)
  ret void
}